target datalayout = "e-m:e-p270:32:32-p271:32:32-p272:64:64-i64:64-i128:128-f80:128-n8:16:32:64-S128"
target triple = "x86_64-pc-linux-gnu"

%struct.H5HF_hdr_t = type { %struct.H5C_cache_entry_t, i32, i32, i8, i8, i8, i8, %struct.H5HF_dtable_t, i64, i64, i32, i64, i64, %struct.H5O_pline_t, i64, i32, i64, i64, i64, i64, i64, i64, i64, i64, i64, i64, i64, i32, ptr, i64, i8, i8, i8, ptr, i32, ptr, %struct.H5HF_block_iter_t, ptr, i64, i8, i8, i64, i8, i8, i8, i8 }
%struct.H5C_cache_entry_t = type { ptr, i64, i64, ptr, i8, ptr, i8, i8, i8, i8, i32, i8, i8, i8, i8, i8, i32, ptr, i32, i32, i32, i32, i32, i8, i8, ptr, ptr, ptr, ptr, ptr, ptr, i8, i32, i8, i64, ptr, i64, i64, i32, i8, i32, i32, i8, ptr, ptr, ptr }
%struct.H5HF_dtable_t = type { %struct.H5HF_dtable_cparam_t, i64, i32, i32, i32, i32, i32, i32, i32, i64, ptr, ptr, ptr, ptr }
%struct.H5HF_dtable_cparam_t = type { i32, i64, i64, i32, i32 }
%struct.H5O_pline_t = type { %struct.H5O_shared_t, i32, i64, i64, ptr }
%struct.H5O_shared_t = type { i32, ptr, i32, %union.anon.3 }
%union.anon.3 = type { %struct.H5O_mesg_loc_t }
%struct.H5O_mesg_loc_t = type { i32, i64 }
%struct.H5HF_block_iter_t = type { i8, ptr }
%struct.H5FS_section_class_t = type { i32, i64, i32, ptr, ptr, ptr, ptr, ptr, ptr, ptr, ptr, ptr, ptr, ptr, ptr, ptr, ptr }
%struct.H5HF_sect_private_t = type { ptr }

@H5HF_init_g = external global i8, align 1
@H5_libterm_g = external global i8, align 1
@.str = private unnamed_addr constant [105 x i8] c"generated/home/dtcxzyw/WorkSpace/Projects/compilers/llvm-opt-benchmark/bench/hdf5/hdf5/src/H5HFsection.c\00", align 1
@H5E_RESOURCE_g = external global i64, align 8
@H5E_NOSPACE_g = external global i64, align 8
@H5E_HEAP_g = external global i64, align 8
@H5E_CANTINC_g = external global i64, align 8
@H5E_CANTINIT_g = external global i64, align 8
@.str.34 = private unnamed_addr constant [38 x i8] c"can't initialize common section class\00", align 1
@__func__.H5FS__sect_init_cls = private unnamed_addr constant [20 x i8] c"H5FS__sect_init_cls\00", align 1
@.str.35 = private unnamed_addr constant [25 x i8] c"memory allocation failed\00", align 1
@.str.36 = private unnamed_addr constant [54 x i8] c"can't increment reference count on shared heap header\00", align 1
@__func__.H5HF__sect_indirect_init_cls = private unnamed_addr constant [29 x i8] c"H5HF__sect_indirect_init_cls\00", align 1

; Function Attrs: nounwind uwtable
define internal i32 @H5FS__sect_init_cls(ptr noundef %0, ptr noundef %1) #0 {
  %3 = alloca ptr, align 8
  %4 = alloca ptr, align 8
  %5 = alloca ptr, align 8
  %6 = alloca i32, align 4
  %7 = alloca i8, align 1
  store ptr %0, ptr %3, align 8, !tbaa !30
  store ptr %1, ptr %4, align 8, !tbaa !22
  call void @llvm.lifetime.start.p0(i64 8, ptr %5) #7
  call void @llvm.lifetime.start.p0(i64 4, ptr %6) #7
  store i32 0, ptr %6, align 4, !tbaa !11
  call void @llvm.lifetime.start.p0(i64 1, ptr %7) #7
  store i8 0, ptr %7, align 1, !tbaa !13
  %8 = load i8, ptr @H5HF_init_g, align 1, !tbaa !13, !range !15, !noundef !16
  %9 = trunc i8 %8 to i1
  br i1 %9, label %14, label %10

10:                                               ; preds = %2
  %11 = load i8, ptr @H5_libterm_g, align 1, !tbaa !13, !range !15, !noundef !16
  %12 = trunc i8 %11 to i1
  %13 = xor i1 %12, true
  br label %14

14:                                               ; preds = %10, %2
  %15 = phi i1 [ true, %2 ], [ %13, %10 ]
  %16 = xor i1 %15, true
  %17 = xor i1 %16, true
  %18 = zext i1 %17 to i32
  %19 = sext i32 %18 to i64
  %20 = call i64 @llvm.expect.i64(i64 %19, i64 1)
  %21 = icmp ne i64 %20, 0
  br i1 %21, label %22, label %75

22:                                               ; preds = %14
  %23 = call noalias ptr @malloc(i64 noundef 8) #8
  store ptr %23, ptr %5, align 8, !tbaa !10
  %24 = icmp eq ptr null, %23
  br i1 %24, label %25, label %44

25:                                               ; preds = %22
  br label %26

26:                                               ; preds = %25
  br label %27

27:                                               ; preds = %26
  br label %28

28:                                               ; preds = %27
  %29 = load i64, ptr @H5E_RESOURCE_g, align 8, !tbaa !25
  %30 = load i64, ptr @H5E_NOSPACE_g, align 8, !tbaa !25
  %31 = call i32 (ptr, ptr, i32, i64, i64, ptr, ...) @H5E_printf_stack(ptr noundef @.str, ptr noundef @__func__.H5FS__sect_init_cls, i32 noundef 300, i64 noundef %29, i64 noundef %30, ptr noundef @.str.35)
  br label %32

32:                                               ; preds = %28
  br label %33

33:                                               ; preds = %32
  store i8 1, ptr %7, align 1, !tbaa !13
  %34 = load i8, ptr %7, align 1, !tbaa !13, !range !15, !noundef !16
  %35 = trunc i8 %34 to i1
  %36 = zext i1 %35 to i8
  store i8 %36, ptr %7, align 1, !tbaa !13
  br label %37

37:                                               ; preds = %33
  br label %38

38:                                               ; preds = %37
  br label %39

39:                                               ; preds = %38
  store i32 -1, ptr %6, align 4, !tbaa !11
  br label %74

40:                                               ; No predecessors!
  br label %41

41:                                               ; preds = %40
  br label %42

42:                                               ; preds = %41
  br label %43

43:                                               ; preds = %42
  br label %44

44:                                               ; preds = %43, %22
  %45 = load ptr, ptr %4, align 8, !tbaa !22
  %46 = load ptr, ptr %5, align 8, !tbaa !10
  %47 = getelementptr inbounds nuw %struct.H5HF_sect_private_t, ptr %46, i32 0, i32 0
  store ptr %45, ptr %47, align 8, !tbaa !19
  %48 = load ptr, ptr %5, align 8, !tbaa !10
  %49 = load ptr, ptr %3, align 8, !tbaa !30
  %50 = getelementptr inbounds nuw %struct.H5FS_section_class_t, ptr %49, i32 0, i32 3
  store ptr %48, ptr %50, align 8, !tbaa !76
  %51 = load ptr, ptr %4, align 8, !tbaa !22
  %52 = call i32 @H5HF__hdr_incr(ptr noundef %51)
  %53 = icmp slt i32 %52, 0
  br i1 %53, label %54, label %73

54:                                               ; preds = %44
  br label %55

55:                                               ; preds = %54
  br label %56

56:                                               ; preds = %55
  br label %57

57:                                               ; preds = %56
  %58 = load i64, ptr @H5E_HEAP_g, align 8, !tbaa !25
  %59 = load i64, ptr @H5E_CANTINC_g, align 8, !tbaa !25
  %60 = call i32 (ptr, ptr, i32, i64, i64, ptr, ...) @H5E_printf_stack(ptr noundef @.str, ptr noundef @__func__.H5FS__sect_init_cls, i32 noundef 306, i64 noundef %58, i64 noundef %59, ptr noundef @.str.36)
  br label %61

61:                                               ; preds = %57
  br label %62

62:                                               ; preds = %61
  store i8 1, ptr %7, align 1, !tbaa !13
  %63 = load i8, ptr %7, align 1, !tbaa !13, !range !15, !noundef !16
  %64 = trunc i8 %63 to i1
  %65 = zext i1 %64 to i8
  store i8 %65, ptr %7, align 1, !tbaa !13
  br label %66

66:                                               ; preds = %62
  br label %67

67:                                               ; preds = %66
  br label %68

68:                                               ; preds = %67
  store i32 -1, ptr %6, align 4, !tbaa !11
  br label %74

69:                                               ; No predecessors!
  br label %70

70:                                               ; preds = %69
  br label %71

71:                                               ; preds = %70
  br label %72

72:                                               ; preds = %71
  br label %73

73:                                               ; preds = %72, %44
  br label %74

74:                                               ; preds = %73, %68, %39
  br label %75

75:                                               ; preds = %74, %14
  %76 = load i32, ptr %6, align 4, !tbaa !11
  call void @llvm.lifetime.end.p0(i64 1, ptr %7) #7
  call void @llvm.lifetime.end.p0(i64 4, ptr %6) #7
  call void @llvm.lifetime.end.p0(i64 8, ptr %5) #7
  ret i32 %76
}

; Function Attrs: nounwind uwtable
define internal i32 @H5HF__sect_indirect_init_cls(ptr noundef %0, ptr noundef %1) #0 {
  %3 = alloca ptr, align 8
  %4 = alloca ptr, align 8
  %5 = alloca ptr, align 8
  %6 = alloca i32, align 4
  %7 = alloca i8, align 1
  store ptr %0, ptr %3, align 8, !tbaa !30
  store ptr %1, ptr %4, align 8, !tbaa !10
  call void @llvm.lifetime.start.p0(i64 8, ptr %5) #7
  %8 = load ptr, ptr %4, align 8, !tbaa !10
  store ptr %8, ptr %5, align 8, !tbaa !22
  call void @llvm.lifetime.start.p0(i64 4, ptr %6) #7
  store i32 0, ptr %6, align 4, !tbaa !11
  call void @llvm.lifetime.start.p0(i64 1, ptr %7) #7
  store i8 0, ptr %7, align 1, !tbaa !13
  %9 = load i8, ptr @H5HF_init_g, align 1, !tbaa !13, !range !15, !noundef !16
  %10 = trunc i8 %9 to i1
  br i1 %10, label %15, label %11

11:                                               ; preds = %2
  %12 = load i8, ptr @H5_libterm_g, align 1, !tbaa !13, !range !15, !noundef !16
  %13 = trunc i8 %12 to i1
  %14 = xor i1 %13, true
  br label %15

15:                                               ; preds = %11, %2
  %16 = phi i1 [ true, %2 ], [ %14, %11 ]
  %17 = xor i1 %16, true
  %18 = xor i1 %17, true
  %19 = zext i1 %18 to i32
  %20 = sext i32 %19 to i64
  %21 = call i64 @llvm.expect.i64(i64 %20, i64 1)
  %22 = icmp ne i64 %21, 0
  br i1 %22, label %23, label %59

23:                                               ; preds = %15
  %24 = load ptr, ptr %3, align 8, !tbaa !30
  %25 = load ptr, ptr %5, align 8, !tbaa !22
  %26 = call i32 @H5FS__sect_init_cls(ptr noundef %24, ptr noundef %25)
  %27 = icmp slt i32 %26, 0
  br i1 %27, label %28, label %47

28:                                               ; preds = %23
  br label %29

29:                                               ; preds = %28
  br label %30

30:                                               ; preds = %29
  br label %31

31:                                               ; preds = %30
  %32 = load i64, ptr @H5E_HEAP_g, align 8, !tbaa !25
  %33 = load i64, ptr @H5E_CANTINIT_g, align 8, !tbaa !25
  %34 = call i32 (ptr, ptr, i32, i64, i64, ptr, ...) @H5E_printf_stack(ptr noundef @.str, ptr noundef @__func__.H5HF__sect_indirect_init_cls, i32 noundef 2031, i64 noundef %32, i64 noundef %33, ptr noundef @.str.34)
  br label %35

35:                                               ; preds = %31
  br label %36

36:                                               ; preds = %35
  store i8 1, ptr %7, align 1, !tbaa !13
  %37 = load i8, ptr %7, align 1, !tbaa !13, !range !15, !noundef !16
  %38 = trunc i8 %37 to i1
  %39 = zext i1 %38 to i8
  store i8 %39, ptr %7, align 1, !tbaa !13
  br label %40

40:                                               ; preds = %36
  br label %41

41:                                               ; preds = %40
  br label %42

42:                                               ; preds = %41
  store i32 -1, ptr %6, align 4, !tbaa !11
  br label %58

43:                                               ; No predecessors!
  br label %44

44:                                               ; preds = %43
  br label %45

45:                                               ; preds = %44
  br label %46

46:                                               ; preds = %45
  br label %47

47:                                               ; preds = %46, %23
  %48 = load ptr, ptr %5, align 8, !tbaa !22
  %49 = getelementptr inbounds nuw %struct.H5HF_hdr_t, ptr %48, i32 0, i32 43
  %50 = load i8, ptr %49, align 1, !tbaa !62
  %51 = zext i8 %50 to i32
  %52 = add i32 %51, 2
  %53 = add i32 %52, 2
  %54 = add i32 %53, 2
  %55 = zext i32 %54 to i64
  %56 = load ptr, ptr %3, align 8, !tbaa !30
  %57 = getelementptr inbounds nuw %struct.H5FS_section_class_t, ptr %56, i32 0, i32 1
  store i64 %55, ptr %57, align 8, !tbaa !75
  br label %58

58:                                               ; preds = %47, %42
  br label %59

59:                                               ; preds = %58, %15
  %60 = load i32, ptr %6, align 4, !tbaa !11
  call void @llvm.lifetime.end.p0(i64 1, ptr %7) #7
  call void @llvm.lifetime.end.p0(i64 4, ptr %6) #7
  call void @llvm.lifetime.end.p0(i64 8, ptr %5) #7
  ret i32 %60
}